target datalayout = "e-m:e-p270:32:32-p271:32:32-p272:64:64-i64:64-i128:128-f80:128-n8:16:32:64-S128"
target triple = "x86_64-pc-linux-gnu"

%"class.__cxxabiv1::__shim_type_info" = type { %"class.std::type_info" }
%"class.std::type_info" = type { ptr, ptr }
%"class.__cxxabiv1::__pbase_type_info" = type { %"class.__cxxabiv1::__shim_type_info", i32, ptr }
%"class.__cxxabiv1::__pointer_to_member_type_info" = type { %"class.__cxxabiv1::__pbase_type_info", ptr }

@_ZTIN10__cxxabiv116__shim_type_infoE = dso_local constant { ptr, ptr, ptr } { ptr getelementptr inbounds (ptr, ptr @_ZTVN10__cxxabiv120__si_class_type_infoE, i64 2), ptr @_ZTSN10__cxxabiv116__shim_type_infoE, ptr @_ZTISt9type_info }, align 8
@_ZTIN10__cxxabiv117__pbase_type_infoE = dso_local constant { ptr, ptr, ptr } { ptr getelementptr inbounds (ptr, ptr @_ZTVN10__cxxabiv120__si_class_type_infoE, i64 2), ptr @_ZTSN10__cxxabiv117__pbase_type_infoE, ptr @_ZTIN10__cxxabiv116__shim_type_infoE }, align 8
@_ZTIN10__cxxabiv120__function_type_infoE = dso_local constant { ptr, ptr, ptr } { ptr getelementptr inbounds (ptr, ptr @_ZTVN10__cxxabiv120__si_class_type_infoE, i64 2), ptr @_ZTSN10__cxxabiv120__function_type_infoE, ptr @_ZTIN10__cxxabiv116__shim_type_infoE }, align 8
@_ZTIN10__cxxabiv129__pointer_to_member_type_infoE = dso_local constant { ptr, ptr, ptr } { ptr getelementptr inbounds (ptr, ptr @_ZTVN10__cxxabiv120__si_class_type_infoE, i64 2), ptr @_ZTSN10__cxxabiv129__pointer_to_member_type_infoE, ptr @_ZTIN10__cxxabiv117__pbase_type_infoE }, align 8
@_ZZNK10__cxxabiv129__pointer_to_member_type_info9can_catchEPKNS_16__shim_type_infoERPvE12null_ptr_rep = internal constant { i64, i64 } zeroinitializer, align 8
@_ZZNK10__cxxabiv129__pointer_to_member_type_info9can_catchEPKNS_16__shim_type_infoERPvE12null_ptr_rep_0 = internal constant i64 -1, align 8
@_ZTIDn = dso_local constant { ptr, ptr } { ptr getelementptr inbounds (ptr, ptr @_ZTVN10__cxxabiv123__fundamental_type_infoE, i64 2), ptr @_ZTSDn }, align 8

; Function Attrs: alwaysinline mustprogress nounwind uwtable
define linkonce_odr hidden noundef ptr @_ZNSt27__type_info_implementations18__string_impl_base21__type_name_to_stringB8ne210000EPKc(ptr noundef %0) #10 comdat align 2 {
  %2 = alloca ptr, align 8
  store ptr %0, ptr %2, align 8, !tbaa !38
  %3 = load ptr, ptr %2, align 8, !tbaa !38
  ret ptr %3
}

; Function Attrs: alwaysinline mustprogress nounwind uwtable
define linkonce_odr hidden noundef zeroext i1 @_ZNSt27__type_info_implementations13__unique_impl4__eqB8ne210000EPKcS2_(ptr noundef %0, ptr noundef %1) #10 comdat align 2 {
  %3 = alloca ptr, align 8
  %4 = alloca ptr, align 8
  store ptr %0, ptr %3, align 8, !tbaa !38
  store ptr %1, ptr %4, align 8, !tbaa !38
  %5 = load ptr, ptr %3, align 8, !tbaa !38
  %6 = load ptr, ptr %4, align 8, !tbaa !38
  %7 = icmp eq ptr %5, %6
  ret i1 %7
}

; Function Attrs: mustprogress nounwind uwtable
define linkonce_odr hidden noundef ptr @_ZNKSt9type_info4nameB8ne210000Ev(ptr noundef nonnull align 8 dereferenceable(16) %0) #1 comdat align 2 {
  %2 = alloca ptr, align 8
  store ptr %0, ptr %2, align 8, !tbaa !31
  %3 = load ptr, ptr %2, align 8
  %4 = getelementptr inbounds nuw %"class.std::type_info", ptr %3, i32 0, i32 1
  %5 = load ptr, ptr %4, align 8, !tbaa !81
  %6 = call noundef ptr @_ZNSt27__type_info_implementations18__string_impl_base21__type_name_to_stringB8ne210000EPKc(ptr noundef %5) #11
  ret ptr %6
}

; Function Attrs: mustprogress nounwind uwtable
define linkonce_odr hidden noundef zeroext i1 @_ZNKSt9type_infoeqB8ne210000ERKS_(ptr noundef nonnull align 8 dereferenceable(16) %0, ptr noundef nonnull align 8 dereferenceable(16) %1) #1 comdat align 2 {
  %3 = alloca ptr, align 8
  %4 = alloca ptr, align 8
  store ptr %0, ptr %3, align 8, !tbaa !31
  store ptr %1, ptr %4, align 8, !tbaa !31
  %5 = load ptr, ptr %3, align 8
  %6 = getelementptr inbounds nuw %"class.std::type_info", ptr %5, i32 0, i32 1
  %7 = load ptr, ptr %6, align 8, !tbaa !81
  %8 = load ptr, ptr %4, align 8, !tbaa !31
  %9 = getelementptr inbounds nuw %"class.std::type_info", ptr %8, i32 0, i32 1
  %10 = load ptr, ptr %9, align 8, !tbaa !81
  %11 = call noundef zeroext i1 @_ZNSt27__type_info_implementations13__unique_impl4__eqB8ne210000EPKcS2_(ptr noundef %7, ptr noundef %10) #11
  ret i1 %11
}

; Function Attrs: mustprogress uwtable
define hidden noundef zeroext i1 @_ZNK10__cxxabiv117__pbase_type_info9can_catchEPKNS_16__shim_type_infoERPv(ptr noundef nonnull align 8 dereferenceable(32) %0, ptr noundef %1, ptr noundef nonnull align 8 dereferenceable(8) %2) unnamed_addr #4 align 2 {
  %4 = alloca i1, align 1
  %5 = alloca ptr, align 8
  %6 = alloca ptr, align 8
  %7 = alloca ptr, align 8
  %8 = alloca i8, align 1
  %9 = alloca ptr, align 8
  %10 = alloca i32, align 4
  store ptr %0, ptr %5, align 8, !tbaa !23
  store ptr %1, ptr %6, align 8, !tbaa !4
  store ptr %2, ptr %7, align 8, !tbaa !29
  %11 = load ptr, ptr %5, align 8
  call void @llvm.lifetime.start.p0(i64 1, ptr %8) #11
  %12 = getelementptr inbounds nuw %"class.__cxxabiv1::__pbase_type_info", ptr %11, i32 0, i32 1
  %13 = load i32, ptr %12, align 8, !tbaa !86
  %14 = and i32 %13, 24
  %15 = icmp ne i32 %14, 0
  %16 = zext i1 %15 to i8
  store i8 %16, ptr %8, align 1, !tbaa !33
  %17 = load i8, ptr %8, align 1, !tbaa !33, !range !35, !noundef !36
  %18 = trunc i8 %17 to i1
  br i1 %18, label %40, label %19

19:                                               ; preds = %3
  call void @llvm.lifetime.start.p0(i64 8, ptr %9) #11
  %20 = load ptr, ptr %6, align 8, !tbaa !4
  %21 = icmp eq ptr %20, null
  br i1 %21, label %24, label %22

22:                                               ; preds = %19
  %23 = call ptr @__dynamic_cast(ptr %20, ptr @_ZTIN10__cxxabiv116__shim_type_infoE, ptr @_ZTIN10__cxxabiv117__pbase_type_infoE, i64 0) #11
  br label %25

24:                                               ; preds = %19
  br label %25

25:                                               ; preds = %24, %22
  %26 = phi ptr [ %23, %22 ], [ null, %24 ]
  store ptr %26, ptr %9, align 8, !tbaa !23
  %27 = load ptr, ptr %9, align 8, !tbaa !23
  %28 = icmp ne ptr %27, null
  br i1 %28, label %30, label %29

29:                                               ; preds = %25
  store i1 false, ptr %4, align 1
  store i32 1, ptr %10, align 4
  br label %37

30:                                               ; preds = %25
  %31 = load ptr, ptr %9, align 8, !tbaa !23
  %32 = getelementptr inbounds nuw %"class.__cxxabiv1::__pbase_type_info", ptr %31, i32 0, i32 1
  %33 = load i32, ptr %32, align 8, !tbaa !86
  %34 = and i32 %33, 24
  %35 = icmp ne i32 %34, 0
  %36 = zext i1 %35 to i8
  store i8 %36, ptr %8, align 1, !tbaa !33
  store i32 0, ptr %10, align 4
  br label %37

37:                                               ; preds = %30, %29
  call void @llvm.lifetime.end.p0(i64 8, ptr %9) #11
  %38 = load i32, ptr %10, align 4
  switch i32 %38, label %45 [
    i32 0, label %39
  ]

39:                                               ; preds = %37
  br label %40

40:                                               ; preds = %39, %3
  %41 = load ptr, ptr %6, align 8, !tbaa !4
  %42 = load i8, ptr %8, align 1, !tbaa !33, !range !35, !noundef !36
  %43 = trunc i8 %42 to i1
  %44 = call noundef zeroext i1 @_ZL8is_equalPKSt9type_infoS1_b(ptr noundef %11, ptr noundef %41, i1 noundef zeroext %43)
  store i1 %44, ptr %4, align 1
  store i32 1, ptr %10, align 4
  br label %45

45:                                               ; preds = %40, %37
  call void @llvm.lifetime.end.p0(i64 1, ptr %8) #11
  %46 = load i1, ptr %4, align 1
  ret i1 %46
}

; Function Attrs: inlinehint mustprogress nounwind uwtable
define internal noundef zeroext i1 @_ZL8is_equalPKSt9type_infoS1_b(ptr noundef %0, ptr noundef %1, i1 noundef zeroext %2) #5 {
  %4 = alloca i1, align 1
  %5 = alloca ptr, align 8
  %6 = alloca ptr, align 8
  %7 = alloca i8, align 1
  store ptr %0, ptr %5, align 8, !tbaa !31
  store ptr %1, ptr %6, align 8, !tbaa !31
  %8 = zext i1 %2 to i8
  store i8 %8, ptr %7, align 1, !tbaa !33
  %9 = load i8, ptr %7, align 1, !tbaa !33, !range !35, !noundef !36
  %10 = trunc i8 %9 to i1
  br i1 %10, label %15, label %11

11:                                               ; preds = %3
  %12 = load ptr, ptr %5, align 8, !tbaa !31
  %13 = load ptr, ptr %6, align 8, !tbaa !31
  %14 = call noundef zeroext i1 @_ZNKSt9type_infoeqB8ne210000ERKS_(ptr noundef nonnull align 8 dereferenceable(16) %12, ptr noundef nonnull align 8 dereferenceable(16) %13) #11
  store i1 %14, ptr %4, align 1
  br label %28

15:                                               ; preds = %3
  %16 = load ptr, ptr %5, align 8, !tbaa !31
  %17 = load ptr, ptr %6, align 8, !tbaa !31
  %18 = icmp eq ptr %16, %17
  br i1 %18, label %26, label %19

19:                                               ; preds = %15
  %20 = load ptr, ptr %5, align 8, !tbaa !31
  %21 = call noundef ptr @_ZNKSt9type_info4nameB8ne210000Ev(ptr noundef nonnull align 8 dereferenceable(16) %20) #11
  %22 = load ptr, ptr %6, align 8, !tbaa !31
  %23 = call noundef ptr @_ZNKSt9type_info4nameB8ne210000Ev(ptr noundef nonnull align 8 dereferenceable(16) %22) #11
  %24 = call i32 @strcmp(ptr noundef %21, ptr noundef %23) #14
  %25 = icmp eq i32 %24, 0
  br label %26

26:                                               ; preds = %19, %15
  %27 = phi i1 [ true, %15 ], [ %25, %19 ]
  store i1 %27, ptr %4, align 1
  br label %28

28:                                               ; preds = %26, %11
  %29 = load i1, ptr %4, align 1
  ret i1 %29
}

; Function Attrs: mustprogress uwtable
define hidden noundef zeroext i1 @_ZNK10__cxxabiv129__pointer_to_member_type_info9can_catchEPKNS_16__shim_type_infoERPv(ptr noundef nonnull align 8 dereferenceable(40) %0, ptr noundef %1, ptr noundef nonnull align 8 dereferenceable(8) %2) unnamed_addr #4 align 2 {
  %4 = alloca i1, align 1
  %5 = alloca ptr, align 8
  %6 = alloca ptr, align 8
  %7 = alloca ptr, align 8
  %8 = alloca ptr, align 8
  %9 = alloca i32, align 4
  store ptr %0, ptr %5, align 8, !tbaa !27
  store ptr %1, ptr %6, align 8, !tbaa !4
  store ptr %2, ptr %7, align 8, !tbaa !29
  %10 = load ptr, ptr %5, align 8
  %11 = load ptr, ptr %6, align 8, !tbaa !4
  %12 = call noundef zeroext i1 @_ZL8is_equalPKSt9type_infoS1_b(ptr noundef %11, ptr noundef @_ZTIDn, i1 noundef zeroext false)
  br i1 %12, label %13, label %28

13:                                               ; preds = %3
  %14 = getelementptr inbounds nuw %"class.__cxxabiv1::__pbase_type_info", ptr %10, i32 0, i32 2
  %15 = load ptr, ptr %14, align 8, !tbaa !88
  %16 = icmp eq ptr %15, null
  br i1 %16, label %19, label %17

17:                                               ; preds = %13
  %18 = call ptr @__dynamic_cast(ptr %15, ptr @_ZTIN10__cxxabiv116__shim_type_infoE, ptr @_ZTIN10__cxxabiv120__function_type_infoE, i64 0) #11
  br label %20

19:                                               ; preds = %13
  br label %20

20:                                               ; preds = %19, %17
  %21 = phi ptr [ %18, %17 ], [ null, %19 ]
  %22 = icmp ne ptr %21, null
  br i1 %22, label %23, label %25

23:                                               ; preds = %20
  %24 = load ptr, ptr %7, align 8, !tbaa !29
  store ptr @_ZZNK10__cxxabiv129__pointer_to_member_type_info9can_catchEPKNS_16__shim_type_infoERPvE12null_ptr_rep, ptr %24, align 8, !tbaa !37
  br label %27

25:                                               ; preds = %20
  %26 = load ptr, ptr %7, align 8, !tbaa !29
  store ptr @_ZZNK10__cxxabiv129__pointer_to_member_type_info9can_catchEPKNS_16__shim_type_infoERPvE12null_ptr_rep_0, ptr %26, align 8, !tbaa !37
  br label %27

27:                                               ; preds = %25, %23
  store i1 true, ptr %4, align 1
  br label %84

28:                                               ; preds = %3
  %29 = load ptr, ptr %6, align 8, !tbaa !4
  %30 = load ptr, ptr %7, align 8, !tbaa !29
  %31 = call noundef zeroext i1 @_ZNK10__cxxabiv117__pbase_type_info9can_catchEPKNS_16__shim_type_infoERPv(ptr noundef nonnull align 8 dereferenceable(32) %10, ptr noundef %29, ptr noundef nonnull align 8 dereferenceable(8) %30)
  br i1 %31, label %32, label %33

32:                                               ; preds = %28
  store i1 true, ptr %4, align 1
  br label %84

33:                                               ; preds = %28
  call void @llvm.lifetime.start.p0(i64 8, ptr %8) #11
  %34 = load ptr, ptr %6, align 8, !tbaa !4
  %35 = icmp eq ptr %34, null
  br i1 %35, label %38, label %36

36:                                               ; preds = %33
  %37 = call ptr @__dynamic_cast(ptr %34, ptr @_ZTIN10__cxxabiv116__shim_type_infoE, ptr @_ZTIN10__cxxabiv129__pointer_to_member_type_infoE, i64 0) #11
  br label %39

38:                                               ; preds = %33
  br label %39

39:                                               ; preds = %38, %36
  %40 = phi ptr [ %37, %36 ], [ null, %38 ]
  store ptr %40, ptr %8, align 8, !tbaa !27
  %41 = load ptr, ptr %8, align 8, !tbaa !27
  %42 = icmp eq ptr %41, null
  br i1 %42, label %43, label %44

43:                                               ; preds = %39
  store i1 false, ptr %4, align 1
  store i32 1, ptr %9, align 4
  br label %83

44:                                               ; preds = %39
  %45 = load ptr, ptr %8, align 8, !tbaa !27
  %46 = getelementptr inbounds nuw %"class.__cxxabiv1::__pbase_type_info", ptr %45, i32 0, i32 1
  %47 = load i32, ptr %46, align 8, !tbaa !86
  %48 = getelementptr inbounds nuw %"class.__cxxabiv1::__pbase_type_info", ptr %10, i32 0, i32 1
  %49 = load i32, ptr %48, align 8, !tbaa !86
  %50 = xor i32 %49, -1
  %51 = and i32 %47, %50
  %52 = and i32 %51, 7
  %53 = icmp ne i32 %52, 0
  br i1 %53, label %54, label %55

54:                                               ; preds = %44
  store i1 false, ptr %4, align 1
  store i32 1, ptr %9, align 4
  br label %83

55:                                               ; preds = %44
  %56 = getelementptr inbounds nuw %"class.__cxxabiv1::__pbase_type_info", ptr %10, i32 0, i32 1
  %57 = load i32, ptr %56, align 8, !tbaa !86
  %58 = load ptr, ptr %8, align 8, !tbaa !27
  %59 = getelementptr inbounds nuw %"class.__cxxabiv1::__pbase_type_info", ptr %58, i32 0, i32 1
  %60 = load i32, ptr %59, align 8, !tbaa !86
  %61 = xor i32 %60, -1
  %62 = and i32 %57, %61
  %63 = and i32 %62, 96
  %64 = icmp ne i32 %63, 0
  br i1 %64, label %65, label %66

65:                                               ; preds = %55
  store i1 false, ptr %4, align 1
  store i32 1, ptr %9, align 4
  br label %83

66:                                               ; preds = %55
  %67 = getelementptr inbounds nuw %"class.__cxxabiv1::__pbase_type_info", ptr %10, i32 0, i32 2
  %68 = load ptr, ptr %67, align 8, !tbaa !88
  %69 = load ptr, ptr %8, align 8, !tbaa !27
  %70 = getelementptr inbounds nuw %"class.__cxxabiv1::__pbase_type_info", ptr %69, i32 0, i32 2
  %71 = load ptr, ptr %70, align 8, !tbaa !88
  %72 = call noundef zeroext i1 @_ZL8is_equalPKSt9type_infoS1_b(ptr noundef %68, ptr noundef %71, i1 noundef zeroext false)
  br i1 %72, label %74, label %73

73:                                               ; preds = %66
  store i1 false, ptr %4, align 1
  store i32 1, ptr %9, align 4
  br label %83

74:                                               ; preds = %66
  %75 = getelementptr inbounds nuw %"class.__cxxabiv1::__pointer_to_member_type_info", ptr %10, i32 0, i32 1
  %76 = load ptr, ptr %75, align 8, !tbaa !89
  %77 = load ptr, ptr %8, align 8, !tbaa !27
  %78 = getelementptr inbounds nuw %"class.__cxxabiv1::__pointer_to_member_type_info", ptr %77, i32 0, i32 1
  %79 = load ptr, ptr %78, align 8, !tbaa !89
  %80 = call noundef zeroext i1 @_ZL8is_equalPKSt9type_infoS1_b(ptr noundef %76, ptr noundef %79, i1 noundef zeroext false)
  br i1 %80, label %81, label %82

81:                                               ; preds = %74
  store i1 true, ptr %4, align 1
  store i32 1, ptr %9, align 4
  br label %83

82:                                               ; preds = %74
  store i1 false, ptr %4, align 1
  store i32 1, ptr %9, align 4
  br label %83

83:                                               ; preds = %82, %81, %73, %65, %54, %43
  call void @llvm.lifetime.end.p0(i64 8, ptr %8) #11
  br label %84

84:                                               ; preds = %83, %32, %27
  %85 = load i1, ptr %4, align 1
  ret i1 %85
}