; Function Attrs: mustprogress nofree nounwind willreturn memory(read, argmem: readwrite) uwtable
define hidden noundef zeroext i1 @_ZNK10__cxxabiv129__pointer_to_member_type_info9can_catchEPKNS_16__shim_type_infoERPv(ptr noundef nonnull readonly align 8 captures(address) dereferenceable(40) %0, ptr noundef readonly %1, ptr noundef nonnull writeonly align 8 captures(none) dereferenceable(8) %2) unnamed_addr #14 align 2 {
  %4 = getelementptr inbounds nuw i8, ptr %1, i64 8
  %5 = load ptr, ptr %4, align 8, !tbaa !4
  %6 = icmp eq ptr %5, @_ZTSDn
  br i1 %6, label %7, label %16

7:                                                ; preds = %3
  %8 = getelementptr inbounds nuw i8, ptr %0, i64 24
  %9 = load ptr, ptr %8, align 8, !tbaa !53
  %10 = icmp eq ptr %9, null
  br i1 %10, label %.thread, label %11

11:                                               ; preds = %7
  %12 = tail call ptr @__dynamic_cast(ptr nonnull %9, ptr nonnull @_ZTIN10__cxxabiv116__shim_type_infoE, ptr nonnull @_ZTIN10__cxxabiv120__function_type_infoE, i64 0) #18
  %.fr = freeze ptr %12
  %13 = icmp eq ptr %.fr, null
  br i1 %13, label %.thread, label %14

.thread:                                          ; preds = %7, %11
  br label %14

14:                                               ; preds = %11, %.thread
  %15 = phi ptr [ @_ZZNK10__cxxabiv129__pointer_to_member_type_info9can_catchEPKNS_16__shim_type_infoERPvE12null_ptr_rep_0, %.thread ], [ @_ZZNK10__cxxabiv129__pointer_to_member_type_info9can_catchEPKNS_16__shim_type_infoERPvE12null_ptr_rep, %11 ]
  store ptr %15, ptr %2, align 8, !tbaa !10
  br label %_ZNK10__cxxabiv117__pbase_type_info9can_catchEPKNS_16__shim_type_infoERPv.exit.thread

16:                                               ; preds = %3
  %17 = getelementptr inbounds nuw i8, ptr %0, i64 16
  %18 = load i32, ptr %17, align 8, !tbaa !50
  %19 = and i32 %18, 24
  %.not.i = icmp eq i32 %19, 0
  br i1 %.not.i, label %20, label %.thread18.i

20:                                               ; preds = %16
  %21 = tail call ptr @__dynamic_cast(ptr nonnull readonly %1, ptr nonnull @_ZTIN10__cxxabiv116__shim_type_infoE, ptr nonnull @_ZTIN10__cxxabiv117__pbase_type_infoE, i64 0) #18
  %.not.not.i = icmp eq ptr %21, null
  br i1 %.not.not.i, label %_ZNK10__cxxabiv117__pbase_type_info9can_catchEPKNS_16__shim_type_infoERPv.exit.thread21, label %22

22:                                               ; preds = %20
  %23 = getelementptr inbounds nuw i8, ptr %21, i64 16
  %24 = load i32, ptr %23, align 8, !tbaa !50
  %25 = and i32 %24, 24
  %.not20.i = icmp eq i32 %25, 0
  br i1 %.not20.i, label %26, label %.thread18.i

26:                                               ; preds = %22
  %27 = getelementptr inbounds nuw i8, ptr %0, i64 8
  %28 = load ptr, ptr %27, align 8, !tbaa !4
  %29 = icmp eq ptr %28, %5
  br i1 %29, label %_ZNK10__cxxabiv117__pbase_type_info9can_catchEPKNS_16__shim_type_infoERPv.exit.thread, label %_ZNK10__cxxabiv117__pbase_type_info9can_catchEPKNS_16__shim_type_infoERPv.exit.thread21

.thread18.i:                                      ; preds = %22, %16
  %30 = icmp eq ptr %0, %1
  br i1 %30, label %_ZNK10__cxxabiv117__pbase_type_info9can_catchEPKNS_16__shim_type_infoERPv.exit.thread, label %_ZNK10__cxxabiv117__pbase_type_info9can_catchEPKNS_16__shim_type_infoERPv.exit

_ZNK10__cxxabiv117__pbase_type_info9can_catchEPKNS_16__shim_type_infoERPv.exit: ; preds = %.thread18.i
  %31 = getelementptr inbounds nuw i8, ptr %0, i64 8
  %32 = load ptr, ptr %31, align 8, !tbaa !4
  %33 = tail call i32 @strcmp(ptr noundef nonnull dereferenceable(1) %32, ptr noundef nonnull dereferenceable(1) %5) #22
  %34 = icmp eq i32 %33, 0
  br i1 %34, label %_ZNK10__cxxabiv117__pbase_type_info9can_catchEPKNS_16__shim_type_infoERPv.exit.thread, label %_ZNK10__cxxabiv117__pbase_type_info9can_catchEPKNS_16__shim_type_infoERPv.exit.thread21

_ZNK10__cxxabiv117__pbase_type_info9can_catchEPKNS_16__shim_type_infoERPv.exit.thread21: ; preds = %20, %26, %_ZNK10__cxxabiv117__pbase_type_info9can_catchEPKNS_16__shim_type_infoERPv.exit
  %35 = tail call ptr @__dynamic_cast(ptr nonnull %1, ptr nonnull @_ZTIN10__cxxabiv116__shim_type_infoE, ptr nonnull @_ZTIN10__cxxabiv129__pointer_to_member_type_infoE, i64 0) #18
  %36 = icmp eq ptr %35, null
  br i1 %36, label %_ZNK10__cxxabiv117__pbase_type_info9can_catchEPKNS_16__shim_type_infoERPv.exit.thread, label %37

37:                                               ; preds = %_ZNK10__cxxabiv117__pbase_type_info9can_catchEPKNS_16__shim_type_infoERPv.exit.thread21
  %38 = getelementptr inbounds nuw i8, ptr %35, i64 16
  %39 = load i32, ptr %38, align 8, !tbaa !50
  %40 = and i32 %18, 7
  %41 = xor i32 %40, 7
  %42 = and i32 %41, %39
  %.not = icmp eq i32 %42, 0
  br i1 %.not, label %43, label %_ZNK10__cxxabiv117__pbase_type_info9can_catchEPKNS_16__shim_type_infoERPv.exit.thread

43:                                               ; preds = %37
  %44 = xor i32 %39, -1
  %45 = and i32 %18, 96
  %46 = and i32 %45, %44
  %.not16 = icmp eq i32 %46, 0
  br i1 %.not16, label %47, label %_ZNK10__cxxabiv117__pbase_type_info9can_catchEPKNS_16__shim_type_infoERPv.exit.thread

47:                                               ; preds = %43
  %48 = getelementptr inbounds nuw i8, ptr %0, i64 24
  %49 = load ptr, ptr %48, align 8, !tbaa !53
  %50 = getelementptr inbounds nuw i8, ptr %35, i64 24
  %51 = load ptr, ptr %50, align 8, !tbaa !53
  %52 = getelementptr inbounds nuw i8, ptr %49, i64 8
  %53 = load ptr, ptr %52, align 8, !tbaa !4
  %54 = getelementptr inbounds nuw i8, ptr %51, i64 8
  %55 = load ptr, ptr %54, align 8, !tbaa !4
  %56 = icmp eq ptr %53, %55
  br i1 %56, label %57, label %_ZNK10__cxxabiv117__pbase_type_info9can_catchEPKNS_16__shim_type_infoERPv.exit.thread

57:                                               ; preds = %47
  %58 = getelementptr inbounds nuw i8, ptr %0, i64 32
  %59 = load ptr, ptr %58, align 8, !tbaa !54
  %60 = getelementptr inbounds nuw i8, ptr %35, i64 32
  %61 = load ptr, ptr %60, align 8, !tbaa !54
  %62 = getelementptr inbounds nuw i8, ptr %59, i64 8
  %63 = load ptr, ptr %62, align 8, !tbaa !4
  %64 = getelementptr inbounds nuw i8, ptr %61, i64 8
  %65 = load ptr, ptr %64, align 8, !tbaa !4
  %66 = icmp eq ptr %63, %65
  br label %_ZNK10__cxxabiv117__pbase_type_info9can_catchEPKNS_16__shim_type_infoERPv.exit.thread

_ZNK10__cxxabiv117__pbase_type_info9can_catchEPKNS_16__shim_type_infoERPv.exit.thread: ; preds = %.thread18.i, %26, %_ZNK10__cxxabiv117__pbase_type_info9can_catchEPKNS_16__shim_type_infoERPv.exit.thread21, %37, %43, %47, %57, %_ZNK10__cxxabiv117__pbase_type_info9can_catchEPKNS_16__shim_type_infoERPv.exit, %14
  %.0 = phi i1 [ true, %14 ], [ true, %_ZNK10__cxxabiv117__pbase_type_info9can_catchEPKNS_16__shim_type_infoERPv.exit ], [ false, %_ZNK10__cxxabiv117__pbase_type_info9can_catchEPKNS_16__shim_type_infoERPv.exit.thread21 ], [ false, %37 ], [ false, %43 ], [ false, %47 ], [ %66, %57 ], [ true, %26 ], [ true, %.thread18.i ]
  ret i1 %.0
}